; Function Attrs: mustprogress nounwind uwtable
define internal fastcc void @_ZN12_GLOBAL__N_111ProfileNodeclIN4llvm16itanium_demangle15ExprRequirementEEEvPKT_(ptr nonnull %.0.val, ptr noundef nonnull readonly captures(none) %0) unnamed_addr #0 align 2 {
  %2 = getelementptr inbounds nuw i8, ptr %0, i64 16
  %3 = load ptr, ptr %2, align 8
  %4 = getelementptr inbounds nuw i8, ptr %0, i64 24
  %5 = load i8, ptr %4, align 8
  %6 = getelementptr inbounds nuw i8, ptr %0, i64 32
  %7 = load ptr, ptr %6, align 8
  tail call void @_ZN4llvm16FoldingSetNodeID10AddIntegerEy(ptr noundef nonnull align 8 dereferenceable(144) %.0.val, i64 noundef 84)
  %8 = ptrtoint ptr %3 to i64
  tail call void @_ZN4llvm16FoldingSetNodeID10AddIntegerEy(ptr noundef nonnull align 8 dereferenceable(144) %.0.val, i64 noundef %8)
  %9 = and i8 %5, 1
  %10 = zext nneg i8 %9 to i64
  tail call void @_ZN4llvm16FoldingSetNodeID10AddIntegerEy(ptr noundef nonnull align 8 dereferenceable(144) %.0.val, i64 noundef %10)
  %11 = ptrtoint ptr %7 to i64
  tail call void @_ZN4llvm16FoldingSetNodeID10AddIntegerEy(ptr noundef nonnull align 8 dereferenceable(144) %.0.val, i64 noundef %11)
  ret void
}